(dp1
S'OriginalConfig'
p2
ccopy_reg
_reconstructor
p3
(cWMCore.Configuration
Configuration
p4
c__builtin__
object
p5
NtRp6
(dp7
S'Site'
p8
g3
(cWMCore.Configuration
ConfigSection
p9
g5
NtRp10
(dp11
S'_internal_skipChecks'
p12
I00
sS'_internal_documentation'
p13
S''
sS'_internal_settings'
p14
c__builtin__
set
p15
((lp16
S'whitelist'
p17
aS'storageSite'
p18
atRp19
sS'_internal_name'
p20
g8
sS'_internal_docstrings'
p21
(dp22
sS'_internal_children'
p23
g15
((ltRp24
sg18
S'T3_FR_IPNL'
p25
sS'_internal_parent_ref'
p26
Nsg17
(lp27
g25
asbsS'_internal_sections'
p28
(lp29
S'General'
p30
aS'JobType'
p31
aS'Data'
p32
ag8
aS'User'
p33
aS'Debug'
p34
asg30
g3
(g9
g5
NtRp35
(dp36
g12
I00
sg13
S''
sg14
g15
((lp37
S'transferOutputs'
p38
aS'transferLogs'
p39
aS'requestName'
p40
atRp41
sg20
g30
sg21
(dp42
sg38
I01
sg23
g15
((ltRp43
sg40
S'GJet-ReReco-Run2016C_v2'
p44
sg26
Nsg39
I01
sbsS'_internal_webapps'
p45
(lp46
sg33
g3
(g9
g5
NtRp47
(dp48
g12
I00
sg13
S''
sg14
g15
((ltRp49
sg20
g33
sg21
(dp50
sg23
g15
((ltRp51
sg26
NsbsS'_internal_components'
p52
(lp53
sg34
g3
(g9
g5
NtRp54
(dp55
g12
I00
sg13
S''
sg14
g15
((ltRp56
sg20
g34
sg21
(dp57
sg23
g15
((ltRp58
sg26
Nsbsg32
g3
(g9
g5
NtRp59
(dp60
S'inputDataset'
p61
S'/SinglePhoton/Run2016C-23Sep2016-v1/MINIAOD'
p62
sg12
I00
sS'unitsPerJob'
p63
I250
sg13
S''
sg14
g15
((lp64
g61
aS'publication'
p65
ag63
aS'splitting'
p66
aS'lumiMask'
p67
aS'outLFNDirBase'
p68
atRp69
sg20
g32
sg66
S'LumiBased'
p70
sg21
(dp71
sg23
g15
((ltRp72
sg68
S'/store/user/hlattaud/GammaJet/GJet-ReReco-Run2016C'
p73
sg26
Nsg67
S'/afs/cern.ch/cms/CAF/CMSCOMM/COMM_DQM/certification/Collisions16/13TeV/ReReco/Cert_271036-284044_13TeV_23Sep2016ReReco_Collisions16_JSON.txt'
p74
sg65
I00
sbsg31
g3
(g9
g5
NtRp75
(dp76
g12
I00
sS'pyCfgParams'
p77
(lp78
S'runOnData=True'
p79
asg13
S''
sg14
g15
((lp80
S'psetName'
p81
aS'pluginName'
p82
ag77
atRp83
sg20
g31
sg21
(dp84
sg82
S'Analysis'
p85
sg23
g15
((ltRp86
sg81
S'../localtest_flat-dataBCD-cfg_miniAOD.py'
p87
sg26
NsbsbsS'voGroup'
p88
S''
sS'Server'
p89
S'cmsweb.cern.ch'
p90
sS'instance'
p91
S'prod'
p92
sS'RequestName'
p93
V161126_184942:hlattaud_crab_GJet-ReReco-Run2016C_v2
p94
sS'voRole'
p95
S'NULL'
p96
sS'Port'
p97
S''
s.