(dp1
S'OriginalConfig'
p2
ccopy_reg
_reconstructor
p3
(cWMCore.Configuration
Configuration
p4
c__builtin__
object
p5
NtRp6
(dp7
S'Site'
p8
g3
(cWMCore.Configuration
ConfigSection
p9
g5
NtRp10
(dp11
S'_internal_skipChecks'
p12
I00
sS'_internal_documentation'
p13
S''
sS'_internal_settings'
p14
c__builtin__
set
p15
((lp16
S'storageSite'
p17
atRp18
sS'_internal_name'
p19
g8
sS'_internal_docstrings'
p20
(dp21
sS'_internal_children'
p22
g15
((ltRp23
sg17
S'T2_CH_CERN'
p24
sS'_internal_parent_ref'
p25
NsbsS'_internal_sections'
p26
(lp27
S'General'
p28
aS'JobType'
p29
aS'Data'
p30
ag8
aS'User'
p31
aS'Debug'
p32
asg28
g3
(g9
g5
NtRp33
(dp34
g12
I00
sg13
S''
sg14
g15
((lp35
S'transferOutputs'
p36
aS'transferLogs'
p37
aS'requestName'
p38
atRp39
sg19
g28
sg20
(dp40
sg36
I01
sg22
g15
((ltRp41
sg38
S'GJet-ReReco-Run2016C_v2'
p42
sg25
Nsg37
I01
sbsS'_internal_webapps'
p43
(lp44
sg31
g3
(g9
g5
NtRp45
(dp46
g12
I00
sg13
S''
sg14
g15
((ltRp47
sg19
g31
sg20
(dp48
sg22
g15
((ltRp49
sg25
NsbsS'_internal_components'
p50
(lp51
sg32
g3
(g9
g5
NtRp52
(dp53
g12
I00
sg13
S''
sg14
g15
((ltRp54
sg19
g32
sg20
(dp55
sg22
g15
((ltRp56
sg25
Nsbsg30
g3
(g9
g5
NtRp57
(dp58
S'inputDataset'
p59
S'/SinglePhoton/Run2016C-23Sep2016-v1/MINIAOD'
p60
sg12
I00
sS'unitsPerJob'
p61
I250
sg13
S''
sg14
g15
((lp62
g59
aS'publication'
p63
ag61
aS'splitting'
p64
aS'lumiMask'
p65
aS'outLFNDirBase'
p66
atRp67
sg19
g30
sg64
S'LumiBased'
p68
sg20
(dp69
sg22
g15
((ltRp70
sg66
S'/store/group/phys_jetmet/hlattaud/GammaJet/GJet-ReReco-Run2016C'
p71
sg25
Nsg65
S'/afs/cern.ch/cms/CAF/CMSCOMM/COMM_DQM/certification/Collisions16/13TeV/ReReco/Cert_271036-284044_13TeV_23Sep2016ReReco_Collisions16_JSON.txt'
p72
sg63
I00
sbsg29
g3
(g9
g5
NtRp73
(dp74
g12
I00
sS'pyCfgParams'
p75
(lp76
S'runOnData=True'
p77
asg13
S''
sg14
g15
((lp78
S'psetName'
p79
aS'pluginName'
p80
ag75
atRp81
sg19
g29
sg20
(dp82
sg80
S'Analysis'
p83
sg22
g15
((ltRp84
sg79
S'/afs/cern.ch/user/h/hlattaud/private/tutorial/CMSSW_8_0_11/src/CMSDIJET/DijetRootTreeMaker/prod/localtest_flat-dataBCD-cfg_miniAOD.py'
p85
sg25
NsbsbsS'voGroup'
p86
S''
sS'Server'
p87
S'cmsweb.cern.ch'
p88
sS'instance'
p89
S'prod'
p90
sS'RequestName'
p91
V161202_142549:hlattaud_crab_GJet-ReReco-Run2016C_v2
p92
sS'voRole'
p93
S'NULL'
p94
sS'Port'
p95
S''
s.