(dp1
S'OriginalConfig'
p2
ccopy_reg
_reconstructor
p3
(cWMCore.Configuration
Configuration
p4
c__builtin__
object
p5
NtRp6
(dp7
S'Site'
p8
g3
(cWMCore.Configuration
ConfigSection
p9
g5
NtRp10
(dp11
S'_internal_skipChecks'
p12
I00
sS'_internal_documentation'
p13
S''
sS'_internal_settings'
p14
c__builtin__
set
p15
((lp16
S'storageSite'
p17
atRp18
sS'_internal_name'
p19
g8
sS'_internal_docstrings'
p20
(dp21
sS'_internal_children'
p22
g15
((ltRp23
sg17
S'T2_CH_CERN'
p24
sS'_internal_parent_ref'
p25
NsbsS'_internal_sections'
p26
(lp27
S'General'
p28
aS'JobType'
p29
aS'Data'
p30
ag8
aS'User'
p31
aS'Debug'
p32
asg28
g3
(g9
g5
NtRp33
(dp34
g12
I00
sg13
S''
sg14
g15
((lp35
S'transferOutputs'
p36
aS'transferLogs'
p37
aS'requestName'
p38
atRp39
sg19
g28
sg20
(dp40
sg36
I01
sg22
g15
((ltRp41
sg38
S'GJet-RunIISpring16MiniAODv1_v2'
p42
sg25
Nsg37
I01
sbsS'_internal_webapps'
p43
(lp44
sg31
g3
(g9
g5
NtRp45
(dp46
g12
I00
sg13
S''
sg14
g15
((ltRp47
sg19
g31
sg20
(dp48
sg22
g15
((ltRp49
sg25
NsbsS'_internal_components'
p50
(lp51
sg32
g3
(g9
g5
NtRp52
(dp53
g12
I00
sg13
S''
sg14
g15
((ltRp54
sg19
g32
sg20
(dp55
sg22
g15
((ltRp56
sg25
Nsbsg30
g3
(g9
g5
NtRp57
(dp58
S'inputDataset'
p59
S'/GJet_Pt-15To6000_TuneCUETP8M1-Flat_13TeV_pythia8/RunIISpring16MiniAODv1-PUSpring16_80X_mcRun2_asymptotic_2016_v3-v1/MINIAODSIM'
p60
sg12
I00
sS'unitsPerJob'
p61
I500000
sg13
S''
sg14
g15
((lp62
g59
ag61
aS'outLFNDirBase'
p63
aS'splitting'
p64
aS'publication'
p65
atRp66
sg19
g30
sg64
S'EventAwareLumiBased'
p67
sg20
(dp68
sg22
g15
((ltRp69
sg63
S'/store/group/phys_jetmet/hlattaud/GammaJet/GJet-RunIISpring16MiniAODv1'
p70
sg25
Nsg65
I00
sbsg29
g3
(g9
g5
NtRp71
(dp72
g12
I00
sg13
S''
sg14
g15
((lp73
S'psetName'
p74
aS'pluginName'
p75
atRp76
sg19
g29
sg20
(dp77
sg75
S'Analysis'
p78
sg22
g15
((ltRp79
sg74
S'/afs/cern.ch/user/h/hlattaud/private/tutorial/CMSSW_8_0_11/src/CMSDIJET/DijetRootTreeMaker/prod/localtest_flat-MC-cfg_miniAOD.py'
p80
sg25
NsbsbsS'voGroup'
p81
S''
sS'Server'
p82
S'cmsweb.cern.ch'
p83
sS'instance'
p84
S'prod'
p85
sS'RequestName'
p86
V161202_142806:hlattaud_crab_GJet-RunIISpring16MiniAODv1_v2
p87
sS'voRole'
p88
S'NULL'
p89
sS'Port'
p90
S''
s.