(dp1
S'OriginalConfig'
p2
ccopy_reg
_reconstructor
p3
(cWMCore.Configuration
Configuration
p4
c__builtin__
object
p5
NtRp6
(dp7
S'Site'
p8
g3
(cWMCore.Configuration
ConfigSection
p9
g5
NtRp10
(dp11
S'_internal_skipChecks'
p12
I00
sS'_internal_documentation'
p13
S''
sS'_internal_settings'
p14
c__builtin__
set
p15
((lp16
S'whitelist'
p17
aS'storageSite'
p18
atRp19
sS'_internal_name'
p20
g8
sS'_internal_docstrings'
p21
(dp22
sS'_internal_children'
p23
g15
((ltRp24
sg18
S'T3_FR_IPNL'
p25
sS'_internal_parent_ref'
p26
Nsg17
(lp27
g25
asbsS'_internal_sections'
p28
(lp29
S'General'
p30
aS'JobType'
p31
aS'Data'
p32
ag8
aS'User'
p33
aS'Debug'
p34
asg30
g3
(g9
g5
NtRp35
(dp36
g12
I00
sg13
S''
sg14
g15
((lp37
S'transferOutputs'
p38
aS'transferLogs'
p39
aS'requestName'
p40
atRp41
sg20
g30
sg21
(dp42
sg38
I01
sg23
g15
((ltRp43
sg40
S'GJet-RunIISpring16MiniAODv1_v2'
p44
sg26
Nsg39
I01
sbsS'_internal_webapps'
p45
(lp46
sg33
g3
(g9
g5
NtRp47
(dp48
g12
I00
sg13
S''
sg14
g15
((ltRp49
sg20
g33
sg21
(dp50
sg23
g15
((ltRp51
sg26
NsbsS'_internal_components'
p52
(lp53
sg34
g3
(g9
g5
NtRp54
(dp55
g12
I00
sg13
S''
sg14
g15
((ltRp56
sg20
g34
sg21
(dp57
sg23
g15
((ltRp58
sg26
Nsbsg32
g3
(g9
g5
NtRp59
(dp60
S'inputDataset'
p61
S'/GJet_Pt-15To6000_TuneCUETP8M1-Flat_13TeV_pythia8/RunIISpring16MiniAODv1-PUSpring16_80X_mcRun2_asymptotic_2016_v3-v1/MINIAODSIM'
p62
sg12
I00
sS'unitsPerJob'
p63
I500000
sg13
S''
sg14
g15
((lp64
g61
ag63
aS'outLFNDirBase'
p65
aS'splitting'
p66
aS'publication'
p67
atRp68
sg20
g32
sg66
S'EventAwareLumiBased'
p69
sg21
(dp70
sg23
g15
((ltRp71
sg65
S'/store/user/hlattaud/GammaJet/GJet-RunIISpring16MiniAODv1'
p72
sg26
Nsg67
I00
sbsg31
g3
(g9
g5
NtRp73
(dp74
g12
I00
sg13
S''
sg14
g15
((lp75
S'psetName'
p76
aS'pluginName'
p77
atRp78
sg20
g31
sg21
(dp79
sg77
S'Analysis'
p80
sg23
g15
((ltRp81
sg76
S'../localtest_flat-MC-cfg_miniAOD.py'
p82
sg26
NsbsbsS'voGroup'
p83
S''
sS'Server'
p84
S'cmsweb.cern.ch'
p85
sS'instance'
p86
S'prod'
p87
sS'RequestName'
p88
V161126_184613:hlattaud_crab_GJet-RunIISpring16MiniAODv1_v2
p89
sS'voRole'
p90
S'NULL'
p91
sS'Port'
p92
S''
s.